target datalayout = "e-m:e-p270:32:32-p271:32:32-p272:64:64-i64:64-i128:128-f80:128-n8:16:32:64-S128"
target triple = "x86_64-pc-linux-gnu"

%"class.fmt::v11::basic_string_view" = type { ptr, i64 }
%"class.fmt::v11::basic_appender" = type { ptr }
%"class.std::system_error" = type { %"class.std::runtime_error", %"class.std::error_code" }
%"class.std::runtime_error" = type { %"class.std::exception", %"struct.std::__cow_string" }
%"class.std::exception" = type { ptr }
%"struct.std::__cow_string" = type { %union.anon.5 }
%union.anon.5 = type { ptr }
%"class.std::error_code" = type { i32, ptr }

@.str.44 = private unnamed_addr constant [23 x i8] c"string pointer is null\00", align 1

; Function Attrs: mustprogress nounwind uwtable
define linkonce_odr hidden noundef ptr @_ZNK3fmt3v1117basic_string_viewIcE3endEv(ptr noundef nonnull align 8 dereferenceable(16) %0) #3 comdat align 2 {
  %2 = alloca ptr, align 8
  store ptr %0, ptr %2, align 8, !tbaa !26
  %3 = load ptr, ptr %2, align 8
  %4 = getelementptr inbounds nuw %"class.fmt::v11::basic_string_view", ptr %3, i32 0, i32 0
  %5 = load ptr, ptr %4, align 8, !tbaa !122
  %6 = getelementptr inbounds nuw %"class.fmt::v11::basic_string_view", ptr %3, i32 0, i32 1
  %7 = load i64, ptr %6, align 8, !tbaa !28
  %8 = getelementptr inbounds nuw i8, ptr %5, i64 %7
  ret ptr %8
}

; Function Attrs: mustprogress nounwind uwtable
define linkonce_odr hidden noundef ptr @_ZNK3fmt3v1117basic_string_viewIcE5beginEv(ptr noundef nonnull align 8 dereferenceable(16) %0) #3 comdat align 2 {
  %2 = alloca ptr, align 8
  store ptr %0, ptr %2, align 8, !tbaa !26
  %3 = load ptr, ptr %2, align 8
  %4 = getelementptr inbounds nuw %"class.fmt::v11::basic_string_view", ptr %3, i32 0, i32 0
  %5 = load ptr, ptr %4, align 8, !tbaa !122
  ret ptr %5
}

; Function Attrs: alwaysinline mustprogress nounwind uwtable
define linkonce_odr hidden noundef ptr @_ZN3fmt3v116detail6narrowEPKc(ptr noundef %0) #9 comdat {
  %2 = alloca ptr, align 8
  store ptr %0, ptr %2, align 8, !tbaa !4
  %3 = load ptr, ptr %2, align 8, !tbaa !4
  ret ptr %3
}

; Function Attrs: mustprogress uwtable
define linkonce_odr hidden ptr @_ZN3fmt3v116detail5writeIcNS0_14basic_appenderIcEEEET0_S5_NS0_17basic_string_viewIT_EE(ptr %0, ptr %1, i64 %2) #4 comdat {
  %4 = alloca %"class.fmt::v11::basic_appender", align 8
  %5 = alloca %"class.fmt::v11::basic_appender", align 8
  %6 = alloca %"class.fmt::v11::basic_string_view", align 8
  %7 = alloca %"class.fmt::v11::basic_appender", align 8
  %8 = getelementptr inbounds nuw %"class.fmt::v11::basic_appender", ptr %5, i32 0, i32 0
  store ptr %0, ptr %8, align 8
  %9 = getelementptr inbounds nuw { ptr, i64 }, ptr %6, i32 0, i32 0
  store ptr %1, ptr %9, align 8
  %10 = getelementptr inbounds nuw { ptr, i64 }, ptr %6, i32 0, i32 1
  store i64 %2, ptr %10, align 8
  %11 = call noundef ptr @_ZNK3fmt3v1117basic_string_viewIcE5beginEv(ptr noundef nonnull align 8 dereferenceable(16) %6) #26
  %12 = call noundef ptr @_ZNK3fmt3v1117basic_string_viewIcE3endEv(ptr noundef nonnull align 8 dereferenceable(16) %6) #26
  call void @llvm.memcpy.p0.p0.i64(ptr align 8 %7, ptr align 8 %5, i64 8, i1 false), !tbaa.struct !51
  %13 = getelementptr inbounds nuw %"class.fmt::v11::basic_appender", ptr %7, i32 0, i32 0
  %14 = load ptr, ptr %13, align 8
  %15 = call ptr @_ZN3fmt3v116detail13copy_noinlineIcPKcNS0_14basic_appenderIcEEEET1_T0_S8_S7_(ptr noundef %11, ptr noundef %12, ptr %14)
  %16 = getelementptr inbounds nuw %"class.fmt::v11::basic_appender", ptr %4, i32 0, i32 0
  store ptr %15, ptr %16, align 8
  %17 = getelementptr inbounds nuw %"class.fmt::v11::basic_appender", ptr %4, i32 0, i32 0
  %18 = load ptr, ptr %17, align 8
  ret ptr %18
}

; Function Attrs: mustprogress uwtable
define linkonce_odr hidden void @_ZN3fmt3v1117basic_string_viewIcEC2EPKc(ptr noundef nonnull align 8 dereferenceable(16) %0, ptr noundef %1) unnamed_addr #4 comdat align 2 {
  %3 = alloca ptr, align 8
  %4 = alloca ptr, align 8
  store ptr %0, ptr %3, align 8, !tbaa !26
  store ptr %1, ptr %4, align 8, !tbaa !4
  %5 = load ptr, ptr %3, align 8
  %6 = getelementptr inbounds nuw %"class.fmt::v11::basic_string_view", ptr %5, i32 0, i32 0
  %7 = load ptr, ptr %4, align 8, !tbaa !4
  store ptr %7, ptr %6, align 8, !tbaa !122
  %8 = load ptr, ptr %4, align 8, !tbaa !4
  %9 = call noundef ptr @_ZN3fmt3v116detail6narrowEPKc(ptr noundef %8)
  %10 = call i64 @strlen(ptr noundef %9) #26
  %11 = getelementptr inbounds nuw %"class.fmt::v11::basic_string_view", ptr %5, i32 0, i32 1
  store i64 %10, ptr %11, align 8, !tbaa !28
  ret void
}

; Function Attrs: mustprogress uwtable
define linkonce_odr hidden ptr @_ZN3fmt3v116detail5writeIcNS0_14basic_appenderIcEEEET0_S5_PKT_(ptr %0, ptr noundef %1) #4 comdat {
  %3 = alloca %"class.fmt::v11::basic_appender", align 8
  %4 = alloca %"class.fmt::v11::basic_appender", align 8
  %5 = alloca ptr, align 8
  %6 = alloca %"class.fmt::v11::basic_appender", align 8
  %7 = alloca %"class.fmt::v11::basic_string_view", align 8
  %8 = getelementptr inbounds nuw %"class.fmt::v11::basic_appender", ptr %4, i32 0, i32 0
  store ptr %0, ptr %8, align 8
  store ptr %1, ptr %5, align 8, !tbaa !4
  %9 = load ptr, ptr %5, align 8, !tbaa !4
  %10 = icmp ne ptr %9, null
  br i1 %10, label %11, label %23

11:                                               ; preds = %2
  call void @llvm.memcpy.p0.p0.i64(ptr align 8 %6, ptr align 8 %4, i64 8, i1 false), !tbaa.struct !51
  %12 = load ptr, ptr %5, align 8, !tbaa !4
  call void @_ZN3fmt3v1117basic_string_viewIcEC2EPKc(ptr noundef nonnull align 8 dereferenceable(16) %7, ptr noundef %12)
  %13 = getelementptr inbounds nuw %"class.fmt::v11::basic_appender", ptr %6, i32 0, i32 0
  %14 = load ptr, ptr %13, align 8
  %15 = getelementptr inbounds nuw { ptr, i64 }, ptr %7, i32 0, i32 0
  %16 = load ptr, ptr %15, align 8
  %17 = getelementptr inbounds nuw { ptr, i64 }, ptr %7, i32 0, i32 1
  %18 = load i64, ptr %17, align 8
  %19 = call ptr @_ZN3fmt3v116detail5writeIcNS0_14basic_appenderIcEEEET0_S5_NS0_17basic_string_viewIT_EE(ptr %14, ptr %16, i64 %18)
  %20 = getelementptr inbounds nuw %"class.fmt::v11::basic_appender", ptr %3, i32 0, i32 0
  store ptr %19, ptr %20, align 8
  %21 = getelementptr inbounds nuw %"class.fmt::v11::basic_appender", ptr %3, i32 0, i32 0
  %22 = load ptr, ptr %21, align 8
  ret ptr %22

23:                                               ; preds = %2
  call void @_ZN3fmt3v1112report_errorEPKc(ptr noundef @.str.44) #28
  unreachable
}

; Function Attrs: mustprogress nounwind uwtable
define linkonce_odr hidden void @_ZN3fmt3v1114basic_appenderIcEC2ERNS0_6detail6bufferIcEE(ptr noundef nonnull align 8 dereferenceable(8) %0, ptr noundef nonnull align 8 dereferenceable(32) %1) unnamed_addr #3 comdat align 2 {
  %3 = alloca ptr, align 8
  %4 = alloca ptr, align 8
  store ptr %0, ptr %3, align 8, !tbaa !22
  store ptr %1, ptr %4, align 8, !tbaa !13
  %5 = load ptr, ptr %3, align 8
  %6 = getelementptr inbounds nuw %"class.fmt::v11::basic_appender", ptr %5, i32 0, i32 0
  %7 = load ptr, ptr %4, align 8, !tbaa !13
  store ptr %7, ptr %6, align 8, !tbaa !24
  ret void
}

; Function Attrs: mustprogress nounwind uwtable
define linkonce_odr hidden void @_ZNSt10error_codeC2EiRKNSt3_V214error_categoryE(ptr noundef nonnull align 8 dereferenceable(16) %0, i32 noundef %1, ptr noundef nonnull align 8 dereferenceable(8) %2) unnamed_addr #3 comdat align 2 {
  %4 = alloca ptr, align 8
  %5 = alloca i32, align 4
  %6 = alloca ptr, align 8
  store ptr %0, ptr %4, align 8, !tbaa !93
  store i32 %1, ptr %5, align 4, !tbaa !9
  store ptr %2, ptr %6, align 8, !tbaa !88
  %7 = load ptr, ptr %4, align 8
  %8 = getelementptr inbounds nuw %"class.std::error_code", ptr %7, i32 0, i32 0
  %9 = load i32, ptr %5, align 4, !tbaa !9
  store i32 %9, ptr %8, align 8, !tbaa !95
  %10 = getelementptr inbounds nuw %"class.std::error_code", ptr %7, i32 0, i32 1
  %11 = load ptr, ptr %6, align 8, !tbaa !88
  store ptr %11, ptr %10, align 8, !tbaa !97
  ret void
}

; Function Attrs: mustprogress nounwind uwtable
define hidden void @_ZN3fmt3v1119format_system_errorERNS0_6detail6bufferIcEEiPKc(ptr noundef nonnull align 8 dereferenceable(32) %0, i32 noundef %1, ptr noundef %2) #3 personality ptr @__gxx_personality_v0 {
  %4 = alloca ptr, align 8
  %5 = alloca i32, align 4
  %6 = alloca ptr, align 8
  %7 = alloca %"class.std::error_code", align 8
  %8 = alloca %"class.fmt::v11::basic_appender", align 8
  %9 = alloca ptr, align 8
  %10 = alloca i32, align 4
  %11 = alloca %"class.std::system_error", align 8
  %12 = alloca %"class.std::error_code", align 8
  %13 = alloca %"class.fmt::v11::basic_appender", align 8
  %14 = alloca %"class.fmt::v11::basic_string_view", align 8
  store ptr %0, ptr %4, align 8, !tbaa !13
  store i32 %1, ptr %5, align 4, !tbaa !9
  store ptr %2, ptr %6, align 8, !tbaa !4
  call void @llvm.lifetime.start.p0(i64 16, ptr %7) #26
  %15 = load i32, ptr %5, align 4, !tbaa !9
  %16 = call noundef nonnull align 8 dereferenceable(8) ptr @_ZNSt3_V216generic_categoryEv() #29
  call void @_ZNSt10error_codeC2EiRKNSt3_V214error_categoryE(ptr noundef nonnull align 8 dereferenceable(16) %7, i32 noundef %15, ptr noundef nonnull align 8 dereferenceable(8) %16) #26
  %17 = load ptr, ptr %4, align 8, !tbaa !13
  invoke void @_ZN3fmt3v1114basic_appenderIcEC2ERNS0_6detail6bufferIcEE(ptr noundef nonnull align 8 dereferenceable(8) %8, ptr noundef nonnull align 8 dereferenceable(32) %17)
          to label %18 unwind label %31

18:                                               ; preds = %3
  call void @llvm.lifetime.start.p0(i64 32, ptr %11) #26
  call void @llvm.memcpy.p0.p0.i64(ptr align 8 %12, ptr align 8 %7, i64 16, i1 false), !tbaa.struct !87
  %19 = load ptr, ptr %6, align 8, !tbaa !4
  %20 = getelementptr inbounds nuw { i32, ptr }, ptr %12, i32 0, i32 0
  %21 = load i32, ptr %20, align 8
  %22 = getelementptr inbounds nuw { i32, ptr }, ptr %12, i32 0, i32 1
  %23 = load ptr, ptr %22, align 8
  invoke void @_ZNSt12system_errorC2ESt10error_codePKc(ptr noundef nonnull align 8 dereferenceable(32) %11, i32 %21, ptr %23, ptr noundef %19)
          to label %24 unwind label %35

24:                                               ; preds = %18
  %25 = call noundef ptr @_ZNKSt13runtime_error4whatEv(ptr noundef nonnull align 8 dereferenceable(16) %11) #26
  %26 = getelementptr inbounds nuw %"class.fmt::v11::basic_appender", ptr %8, i32 0, i32 0
  %27 = load ptr, ptr %26, align 8
  %28 = invoke ptr @_ZN3fmt3v116detail5writeIcNS0_14basic_appenderIcEEEET0_S5_PKT_(ptr %27, ptr noundef %25)
          to label %29 unwind label %39

29:                                               ; preds = %24
  %30 = getelementptr inbounds nuw %"class.fmt::v11::basic_appender", ptr %13, i32 0, i32 0
  store ptr %28, ptr %30, align 8
  call void @_ZNSt12system_errorD1Ev(ptr noundef nonnull align 8 dereferenceable(32) %11) #26
  call void @llvm.lifetime.end.p0(i64 32, ptr %11) #26
  call void @llvm.lifetime.end.p0(i64 16, ptr %7) #26
  br label %58

31:                                               ; preds = %3
  %32 = landingpad { ptr, i32 }
          catch ptr null
  %33 = extractvalue { ptr, i32 } %32, 0
  store ptr %33, ptr %9, align 8
  %34 = extractvalue { ptr, i32 } %32, 1
  store i32 %34, ptr %10, align 4
  br label %44

35:                                               ; preds = %18
  %36 = landingpad { ptr, i32 }
          catch ptr null
  %37 = extractvalue { ptr, i32 } %36, 0
  store ptr %37, ptr %9, align 8
  %38 = extractvalue { ptr, i32 } %36, 1
  store i32 %38, ptr %10, align 4
  br label %43

39:                                               ; preds = %24
  %40 = landingpad { ptr, i32 }
          catch ptr null
  %41 = extractvalue { ptr, i32 } %40, 0
  store ptr %41, ptr %9, align 8
  %42 = extractvalue { ptr, i32 } %40, 1
  store i32 %42, ptr %10, align 4
  call void @_ZNSt12system_errorD1Ev(ptr noundef nonnull align 8 dereferenceable(32) %11) #26
  br label %43

43:                                               ; preds = %39, %35
  call void @llvm.lifetime.end.p0(i64 32, ptr %11) #26
  br label %44

44:                                               ; preds = %43, %31
  call void @llvm.lifetime.end.p0(i64 16, ptr %7) #26
  br label %45

45:                                               ; preds = %44
  %46 = load ptr, ptr %9, align 8
  %47 = call ptr @__cxa_begin_catch(ptr %46) #26
  invoke void @__cxa_end_catch()
          to label %48 unwind label %59

48:                                               ; preds = %45
  br label %49

49:                                               ; preds = %48
  %50 = load ptr, ptr %4, align 8, !tbaa !13
  %51 = load i32, ptr %5, align 4, !tbaa !9
  %52 = load ptr, ptr %6, align 8, !tbaa !4
  invoke void @_ZN3fmt3v1117basic_string_viewIcEC2EPKc(ptr noundef nonnull align 8 dereferenceable(16) %14, ptr noundef %52)
          to label %53 unwind label %59

53:                                               ; preds = %49
  %54 = getelementptr inbounds nuw { ptr, i64 }, ptr %14, i32 0, i32 0
  %55 = load ptr, ptr %54, align 8
  %56 = getelementptr inbounds nuw { ptr, i64 }, ptr %14, i32 0, i32 1
  %57 = load i64, ptr %56, align 8
  call void @_ZN3fmt3v116detail17format_error_codeERNS1_6bufferIcEEiNS0_17basic_string_viewIcEE(ptr noundef nonnull align 8 dereferenceable(32) %50, i32 noundef %51, ptr %55, i64 %57) #26
  br label %58

58:                                               ; preds = %53, %29
  ret void

59:                                               ; preds = %49, %45
  %60 = landingpad { ptr, i32 }
          catch ptr null
  %61 = extractvalue { ptr, i32 } %60, 0
  call void @__clang_call_terminate(ptr %61) #27
  unreachable
}